target datalayout = "e-m:e-p270:32:32-p271:32:32-p272:64:64-i64:64-i128:128-f80:128-n8:16:32:64-S128"
target triple = "x86_64-pc-linux-gnu"

%struct.Castle = type { i32, i32, i8, i8, i8, i32, i32, i32, %union.anon }
%union.anon = type { %struct.anon.0 }
%struct.anon.0 = type { <2 x i64>, <2 x i64> }
%struct.unaligned.3 = type { i64 }

; Function Attrs: alwaysinline nounwind uwtable
define internal void @unaligned_store_u64a(ptr noundef %0, i64 noundef %1) #1 {
  %3 = alloca ptr, align 8
  %4 = alloca i64, align 8
  %5 = alloca ptr, align 8
  store ptr %0, ptr %3, align 8
  store i64 %1, ptr %4, align 8
  call void @llvm.lifetime.start.p0(i64 8, ptr %5) #10
  %6 = load ptr, ptr %3, align 8
  store ptr %6, ptr %5, align 8
  %7 = load i64, ptr %4, align 8
  %8 = load ptr, ptr %5, align 8
  %9 = getelementptr inbounds nuw %struct.unaligned.3, ptr %8, i32 0, i32 0
  store i64 %7, ptr %9, align 1
  call void @llvm.lifetime.end.p0(i64 8, ptr %5) #10
  ret void
}

; Function Attrs: alwaysinline nounwind uwtable
define internal void @mmb_store(ptr noundef %0, i64 noundef %1) #1 {
  %3 = alloca ptr, align 8
  %4 = alloca i64, align 8
  store ptr %0, ptr %3, align 8
  store i64 %1, ptr %4, align 8
  %5 = load ptr, ptr %3, align 8
  %6 = load i64, ptr %4, align 8
  call void @unaligned_store_u64a(ptr noundef %5, i64 noundef %6)
  ret void
}

; Function Attrs: alwaysinline nounwind uwtable
define internal i32 @mmbit_flat_size(i32 noundef %0) #1 {
  %2 = alloca i32, align 4
  store i32 %0, ptr %2, align 4
  %3 = load i32, ptr %2, align 4
  %4 = add i32 %3, 7
  %5 = and i32 %4, -8
  %6 = udiv i32 %5, 8
  ret i32 %6
}

; Function Attrs: alwaysinline nounwind uwtable
define internal i32 @mmbit_is_flat_model(i32 noundef %0) #1 {
  %2 = alloca i32, align 4
  store i32 %0, ptr %2, align 4
  %3 = load i32, ptr %2, align 4
  %4 = icmp ule i32 %3, 256
  %5 = zext i1 %4 to i32
  ret i32 %5
}

; Function Attrs: alwaysinline nounwind uwtable
define internal void @mmbit_clear(ptr noundef %0, i32 noundef %1) #1 {
  %3 = alloca ptr, align 8
  %4 = alloca i32, align 4
  store ptr %0, ptr %3, align 8
  store i32 %1, ptr %4, align 4
  br label %5

5:                                                ; preds = %2
  br label %6

6:                                                ; preds = %5
  br label %7

7:                                                ; preds = %6
  br label %8

8:                                                ; preds = %7
  %9 = load i32, ptr %4, align 4
  %10 = icmp ne i32 %9, 0
  br i1 %10, label %12, label %11

11:                                               ; preds = %8
  br label %23

12:                                               ; preds = %8
  %13 = load i32, ptr %4, align 4
  %14 = call i32 @mmbit_is_flat_model(i32 noundef %13)
  %15 = icmp ne i32 %14, 0
  br i1 %15, label %16, label %21

16:                                               ; preds = %12
  %17 = load ptr, ptr %3, align 8
  %18 = load i32, ptr %4, align 4
  %19 = call i32 @mmbit_flat_size(i32 noundef %18)
  %20 = zext i32 %19 to i64
  call void @llvm.memset.p0.i64(ptr align 1 %17, i8 0, i64 %20, i1 false)
  br label %23

21:                                               ; preds = %12
  %22 = load ptr, ptr %3, align 8
  call void @mmb_store(ptr noundef %22, i64 noundef 0)
  br label %23

23:                                               ; preds = %21, %16, %11
  ret void
}

; Function Attrs: nounwind uwtable
define hidden signext i8 @nfaExecCastle_initCompressedState(ptr noundef %0, i64 noundef %1, ptr noundef %2, i8 noundef zeroext %3) #0 {
  %5 = alloca ptr, align 8
  %6 = alloca i64, align 8
  %7 = alloca ptr, align 8
  %8 = alloca i8, align 1
  %9 = alloca ptr, align 8
  %10 = alloca ptr, align 8
  %11 = alloca ptr, align 8
  store ptr %0, ptr %5, align 8
  store i64 %1, ptr %6, align 8
  store ptr %2, ptr %7, align 8
  store i8 %3, ptr %8, align 1
  br label %12

12:                                               ; preds = %4
  br label %13

13:                                               ; preds = %12
  call void @llvm.lifetime.start.p0(i64 8, ptr %9) #10
  %14 = load ptr, ptr %5, align 8
  %15 = getelementptr inbounds nuw i8, ptr %14, i64 64
  store ptr %15, ptr %9, align 8
  %16 = load ptr, ptr %9, align 8
  %17 = getelementptr inbounds nuw %struct.Castle, ptr %16, i32 0, i32 3
  %18 = load i8, ptr %17, align 1
  %19 = icmp ne i8 %18, 0
  br i1 %19, label %20, label %31

20:                                               ; preds = %13
  call void @llvm.lifetime.start.p0(i64 8, ptr %10) #10
  %21 = load ptr, ptr %7, align 8
  %22 = load ptr, ptr %9, align 8
  %23 = getelementptr inbounds nuw %struct.Castle, ptr %22, i32 0, i32 7
  %24 = load i32, ptr %23, align 4
  %25 = zext i32 %24 to i64
  %26 = getelementptr inbounds nuw i8, ptr %21, i64 %25
  store ptr %26, ptr %10, align 8
  %27 = load ptr, ptr %10, align 8
  %28 = load ptr, ptr %9, align 8
  %29 = getelementptr inbounds nuw %struct.Castle, ptr %28, i32 0, i32 1
  %30 = load i32, ptr %29, align 4
  call void @mmbit_clear(ptr noundef %27, i32 noundef %30)
  call void @llvm.lifetime.end.p0(i64 8, ptr %10) #10
  br label %31

31:                                               ; preds = %20, %13
  %32 = load ptr, ptr %9, align 8
  %33 = getelementptr inbounds nuw %struct.Castle, ptr %32, i32 0, i32 3
  %34 = load i8, ptr %33, align 1
  %35 = zext i8 %34 to i32
  %36 = icmp ne i32 %35, 2
  br i1 %36, label %37, label %48

37:                                               ; preds = %31
  call void @llvm.lifetime.start.p0(i64 8, ptr %11) #10
  %38 = load ptr, ptr %7, align 8
  %39 = load ptr, ptr %9, align 8
  %40 = getelementptr inbounds nuw %struct.Castle, ptr %39, i32 0, i32 5
  %41 = load i32, ptr %40, align 4
  %42 = zext i32 %41 to i64
  %43 = getelementptr inbounds nuw i8, ptr %38, i64 %42
  store ptr %43, ptr %11, align 8
  %44 = load ptr, ptr %11, align 8
  %45 = load ptr, ptr %9, align 8
  %46 = getelementptr inbounds nuw %struct.Castle, ptr %45, i32 0, i32 0
  %47 = load i32, ptr %46, align 32
  call void @mmbit_clear(ptr noundef %44, i32 noundef %47)
  call void @llvm.lifetime.end.p0(i64 8, ptr %11) #10
  br label %48

48:                                               ; preds = %37, %31
  call void @llvm.lifetime.end.p0(i64 8, ptr %9) #10
  ret i8 0
}