; Function Attrs: mustprogress nofree norecurse nosync nounwind willreturn memory(argmem: readwrite) uwtable
define hidden noundef signext i8 @nfaExecCastle_initCompressedState(ptr noundef readonly captures(none) %0, i64 noundef %1, ptr noundef writeonly captures(none) %2, i8 noundef zeroext %3) local_unnamed_addr #4 {
  %5 = getelementptr inbounds nuw i8, ptr %0, i64 64
  %6 = getelementptr inbounds nuw i8, ptr %0, i64 73
  %7 = load i8, ptr %6, align 1
  %.not = icmp eq i8 %7, 0
  br i1 %.not, label %mmbit_clear.exit14.thread, label %8

8:                                                ; preds = %4
  %9 = getelementptr inbounds nuw i8, ptr %0, i64 84
  %10 = load i32, ptr %9, align 4
  %11 = zext i32 %10 to i64
  %12 = getelementptr inbounds nuw i8, ptr %2, i64 %11
  %13 = getelementptr inbounds nuw i8, ptr %0, i64 68
  %14 = load i32, ptr %13, align 4
  %.not.i12 = icmp eq i32 %14, 0
  br i1 %.not.i12, label %mmbit_clear.exit14, label %15

15:                                               ; preds = %8
  %16 = icmp ugt i32 %14, 256
  br i1 %16, label %21, label %17

17:                                               ; preds = %15
  %18 = add nuw nsw i32 %14, 7
  %19 = lshr i32 %18, 3
  %20 = zext nneg i32 %19 to i64
  tail call void @llvm.memset.p0.i64(ptr align 1 %12, i8 0, i64 %20, i1 false)
  br label %mmbit_clear.exit14

21:                                               ; preds = %15
  store i64 0, ptr %12, align 1
  br label %mmbit_clear.exit14

mmbit_clear.exit14:                               ; preds = %21, %17, %8
  %.pr = load i8, ptr %6, align 1
  %.not11 = icmp eq i8 %.pr, 2
  br i1 %.not11, label %mmbit_clear.exit, label %mmbit_clear.exit14.thread

mmbit_clear.exit14.thread:                        ; preds = %4, %mmbit_clear.exit14
  %22 = getelementptr inbounds nuw i8, ptr %0, i64 76
  %23 = load i32, ptr %22, align 4
  %24 = zext i32 %23 to i64
  %25 = getelementptr inbounds nuw i8, ptr %2, i64 %24
  %26 = load i32, ptr %5, align 32
  %.not.i = icmp eq i32 %26, 0
  br i1 %.not.i, label %mmbit_clear.exit, label %27

27:                                               ; preds = %mmbit_clear.exit14.thread
  %28 = icmp ugt i32 %26, 256
  br i1 %28, label %33, label %29

29:                                               ; preds = %27
  %30 = add nuw nsw i32 %26, 7
  %31 = lshr i32 %30, 3
  %32 = zext nneg i32 %31 to i64
  tail call void @llvm.memset.p0.i64(ptr align 1 %25, i8 0, i64 %32, i1 false)
  br label %mmbit_clear.exit

33:                                               ; preds = %27
  store i64 0, ptr %25, align 1
  br label %mmbit_clear.exit

mmbit_clear.exit:                                 ; preds = %33, %29, %mmbit_clear.exit14.thread, %mmbit_clear.exit14
  ret i8 0
}